; Function Attrs: nounwind uwtable
define range(i32 0, 2) i32 @Acb_NtkCheckPiOrder(ptr noundef captures(none) %0, ptr noundef readonly captures(none) %1) local_unnamed_addr #0 {
  %3 = getelementptr i8, ptr %0, i64 28
  %.val = load i32, ptr %3, align 4
  %4 = icmp sgt i32 %.val, 0
  br i1 %4, label %.lr.ph, label %.loopexit

.lr.ph:                                           ; preds = %2
  %5 = getelementptr i8, ptr %0, i64 32
  %6 = getelementptr i8, ptr %0, i64 232
  %7 = getelementptr i8, ptr %1, i64 32
  %8 = getelementptr i8, ptr %1, i64 232
  %wide.trip.count = zext nneg i32 %.val to i64
  br label %9

9:                                                ; preds = %.lr.ph, %27
  %indvars.iv = phi i64 [ 0, %.lr.ph ], [ %indvars.iv.next, %27 ]
  %.val19 = load ptr, ptr %5, align 8
  %10 = getelementptr inbounds nuw i32, ptr %.val19, i64 %indvars.iv
  %11 = load i32, ptr %10, align 4
  %.val22 = load ptr, ptr %0, align 8
  %.val23 = load ptr, ptr %6, align 8
  %12 = getelementptr i8, ptr %.val22, i64 16
  %.val22.val = load ptr, ptr %12, align 8
  %13 = sext i32 %11 to i64
  %14 = getelementptr inbounds i32, ptr %.val23, i64 %13
  %15 = load i32, ptr %14, align 4
  %16 = tail call ptr @Abc_NamStr(ptr noundef %.val22.val, i32 noundef %15) #18
  %.val18 = load ptr, ptr %7, align 8
  %17 = getelementptr inbounds nuw i32, ptr %.val18, i64 %indvars.iv
  %18 = load i32, ptr %17, align 4
  %.val20 = load ptr, ptr %1, align 8
  %.val21 = load ptr, ptr %8, align 8
  %19 = getelementptr i8, ptr %.val20, i64 16
  %.val20.val = load ptr, ptr %19, align 8
  %20 = sext i32 %18 to i64
  %21 = getelementptr inbounds i32, ptr %.val21, i64 %20
  %22 = load i32, ptr %21, align 4
  %23 = tail call ptr @Abc_NamStr(ptr noundef %.val20.val, i32 noundef %22) #18
  %24 = tail call i32 @strcmp(ptr noundef nonnull dereferenceable(1) %16, ptr noundef nonnull dereferenceable(1) %23) #21
  %.not = icmp eq i32 %24, 0
  br i1 %.not, label %27, label %25

25:                                               ; preds = %9
  %26 = trunc nuw nsw i64 %indvars.iv to i32
  %puts = tail call i32 @puts(ptr nonnull dereferenceable(1) @str)
  tail call void @Acb_NtkUpdateCiOrder(ptr noundef nonnull %0, ptr noundef nonnull %1)
  br label %.loopexit

27:                                               ; preds = %9
  %indvars.iv.next = add nuw nsw i64 %indvars.iv, 1
  %exitcond.not = icmp eq i64 %indvars.iv.next, %wide.trip.count
  br i1 %exitcond.not, label %.loopexit.thread, label %9, !llvm.loop !33

.loopexit:                                        ; preds = %2, %25
  %.025 = phi i32 [ %26, %25 ], [ 0, %2 ]
  %28 = icmp eq i32 %.025, %.val
  br i1 %28, label %.loopexit.thread, label %29

.loopexit.thread:                                 ; preds = %27, %.loopexit
  %puts17 = tail call i32 @puts(ptr nonnull dereferenceable(1) @str.1)
  br label %29

29:                                               ; preds = %.loopexit.thread, %.loopexit
  %30 = phi i32 [ 1, %.loopexit.thread ], [ 0, %.loopexit ]
  ret i32 %30
}